(ikeras_frcnn.config
Config
p0
(dp1
S'use_vertical_flips'
p2
I01
sS'verbose'
p3
I01
sS'classifier_regr_std'
p4
(lp5
F8.0
aF8.0
aF4.0
aF4.0
asS'classifier_min_overlap'
p6
F0.1
sS'rot_90'
p7
I00
sS'class_mapping'
p8
NsS'use_horizontal_flips'
p9
I01
sS'rpn_max_overlap'
p10
F0.7
sS'network'
p11
S'resnet50'
p12
sS'img_channel_mean'
p13
(lp14
F103.939
aF116.779
aF123.68
asS'balanced_classes'
p15
I00
sS'anchor_box_ratios'
p16
(lp17
(lp18
I1
aI1
aa(lp19
F0.7071067811865475
aF1.414213562373095
aa(lp20
F1.414213562373095
aF0.7071067811865475
aasS'img_scaling_factor'
p21
F1.0
sS'rpn_stride'
p22
I16
sS'num_rois'
p23
I32
sS'base_net_weights'
p24
S'resnet50_weights_tf_dim_ordering_tf_kernels.h5'
p25
sS'anchor_box_scales'
p26
(lp27
I128
aI256
aI512
asS'rpn_min_overlap'
p28
F0.3
sS'model_path'
p29
S'./model_frcnn.hdf5'
p30
sS'classifier_max_overlap'
p31
F0.5
sS'std_scaling'
p32
F4.0
sS'im_size'
p33
I600
sb.